; ModuleID = 'source-C-CXX/53/1208.cpp'
source_filename = "source-C-CXX/53/1208.cpp"
target datalayout = "e-m:e-p270:32:32-p271:32:32-p272:64:64-i64:64-f80:128-n8:16:32:64-S128"
target triple = "x86_64-pc-linux-gnu"

%"class.std::ios_base::Init" = type { i8 }
%"class.std::basic_istream" = type { i32 (...)**, i64, %"class.std::basic_ios" }
%"class.std::basic_ios" = type { %"class.std::ios_base", %"class.std::basic_ostream"*, i8, i8, %"class.std::basic_streambuf"*, %"class.std::ctype"*, %"class.std::num_put"*, %"class.std::num_get"* }
%"class.std::ios_base" = type { i32 (...)**, i64, i64, i32, i32, i32, %"struct.std::ios_base::_Callback_list"*, %"struct.std::ios_base::_Words", [8 x %"struct.std::ios_base::_Words"], i32, %"struct.std::ios_base::_Words"*, %"class.std::locale" }
%"struct.std::ios_base::_Callback_list" = type { %"struct.std::ios_base::_Callback_list"*, void (i32, %"class.std::ios_base"*, i32)*, i32, i32 }
%"struct.std::ios_base::_Words" = type { i8*, i64 }
%"class.std::locale" = type { %"class.std::locale::_Impl"* }
%"class.std::locale::_Impl" = type { i32, %"class.std::locale::facet"**, i64, %"class.std::locale::facet"**, i8** }
%"class.std::locale::facet" = type <{ i32 (...)**, i32, [4 x i8] }>
%"class.std::basic_ostream" = type { i32 (...)**, %"class.std::basic_ios" }
%"class.std::basic_streambuf" = type { i32 (...)**, i8*, i8*, i8*, i8*, i8*, i8*, %"class.std::locale" }
%"class.std::ctype" = type <{ %"class.std::locale::facet.base", [4 x i8], %struct.__locale_struct*, i8, [7 x i8], i32*, i32*, i16*, i8, [256 x i8], [256 x i8], i8, [6 x i8] }>
%"class.std::locale::facet.base" = type <{ i32 (...)**, i32 }>
%struct.__locale_struct = type { [13 x %struct.__locale_data*], i16*, i32*, i32*, [13 x i8*] }
%struct.__locale_data = type opaque
%"class.std::num_put" = type { %"class.std::locale::facet.base", [4 x i8] }
%"class.std::num_get" = type { %"class.std::locale::facet.base", [4 x i8] }

@_ZStL8__ioinit = internal global %"class.std::ios_base::Init" zeroinitializer, align 1
@__dso_handle = external hidden global i8
@_ZSt3cin = external global %"class.std::basic_istream", align 8
@_ZSt4cout = external global %"class.std::basic_ostream", align 8
@llvm.global_ctors = appending global [1 x { i32, void ()*, i8* }] [{ i32, void ()*, i8* } { i32 65535, void ()* @_GLOBAL__sub_I_1208.cpp, i8* null }]

declare void @_ZNSt8ios_base4InitC1Ev(%"class.std::ios_base::Init"* nonnull align 1 dereferenceable(1)) unnamed_addr #0

; Function Attrs: nounwind
declare void @_ZNSt8ios_base4InitD1Ev(%"class.std::ios_base::Init"* nonnull align 1 dereferenceable(1)) unnamed_addr #1

; Function Attrs: nofree nounwind
declare i32 @__cxa_atexit(void (i8*)*, i8*, i8*) local_unnamed_addr #2

; Function Attrs: mustprogress nofree norecurse nosync nounwind readnone sspstrong uwtable willreturn
define dso_local i32 @_Z5appleii(i32 %0, i32 %1) local_unnamed_addr #3 {
  %3 = add nsw i32 %0, 1
  %4 = zext i32 %3 to i64
  %5 = alloca i32, i64 %4, align 16
  %6 = add nsw i32 %1, %0
  %7 = sext i32 %0 to i64
  %8 = getelementptr inbounds i32, i32* %5, i64 %7
  store i32 %6, i32* %8, align 4, !tbaa !5
  %9 = add nsw i32 %0, -1
  br label %10

10:                                               ; preds = %30, %2
  %11 = phi i32 [ %0, %2 ], [ %31, %30 ]
  %12 = icmp sgt i32 %11, 1
  br i1 %12, label %13, label %30

13:                                               ; preds = %10
  %14 = zext i32 %11 to i64
  %15 = getelementptr inbounds i32, i32* %5, i64 %14
  %16 = load i32, i32* %15, align 4, !tbaa !5
  %17 = srem i32 %16, %9
  %18 = sdiv i32 %16, %9
  %19 = icmp eq i32 %17, 0
  br i1 %19, label %23, label %20

20:                                               ; preds = %13
  %21 = load i32, i32* %8, align 4, !tbaa !5
  %22 = add nsw i32 %21, %0
  store i32 %22, i32* %8, align 4, !tbaa !5
  br label %30

23:                                               ; preds = %13
  %24 = mul nsw i32 %18, %0
  %25 = add nsw i32 %24, %1
  %26 = add nsw i32 %11, -1
  %27 = zext i32 %26 to i64
  %28 = getelementptr inbounds i32, i32* %5, i64 %27
  store i32 %25, i32* %28, align 4, !tbaa !5
  %29 = icmp eq i32 %11, 2
  br i1 %29, label %32, label %30

30:                                               ; preds = %23, %10, %20
  %31 = phi i32 [ %26, %23 ], [ %0, %10 ], [ %0, %20 ]
  br label %10, !llvm.loop !9

32:                                               ; preds = %23
  %33 = getelementptr inbounds i32, i32* %5, i64 1
  %34 = load i32, i32* %33, align 4, !tbaa !5
  ret i32 %34
}

; Function Attrs: argmemonly mustprogress nofree nosync nounwind willreturn
declare void @llvm.lifetime.start.p0i8(i64 immarg, i8* nocapture) #4

; Function Attrs: argmemonly mustprogress nofree nosync nounwind willreturn
declare void @llvm.lifetime.end.p0i8(i64 immarg, i8* nocapture) #4

; Function Attrs: mustprogress norecurse sspstrong uwtable
define dso_local i32 @main() local_unnamed_addr #5 {
  %1 = alloca i32, align 4
  %2 = alloca i32, align 4
  %3 = bitcast i32* %1 to i8*
  call void @llvm.lifetime.start.p0i8(i64 4, i8* nonnull %3) #7
  %4 = bitcast i32* %2 to i8*
  call void @llvm.lifetime.start.p0i8(i64 4, i8* nonnull %4) #7
  %5 = call nonnull align 8 dereferenceable(16) %"class.std::basic_istream"* @_ZNSirsERi(%"class.std::basic_istream"* nonnull align 8 dereferenceable(16) @_ZSt3cin, i32* nonnull align 4 dereferenceable(4) %1)
  %6 = call nonnull align 8 dereferenceable(16) %"class.std::basic_istream"* @_ZNSirsERi(%"class.std::basic_istream"* nonnull align 8 dereferenceable(16) %5, i32* nonnull align 4 dereferenceable(4) %2)
  %7 = load i32, i32* %1, align 4, !tbaa !5
  %8 = load i32, i32* %2, align 4, !tbaa !5
  %9 = call i32 @_Z5appleii(i32 %7, i32 %8)
  %10 = call nonnull align 8 dereferenceable(8) %"class.std::basic_ostream"* @_ZNSolsEi(%"class.std::basic_ostream"* nonnull align 8 dereferenceable(8) @_ZSt4cout, i32 %9)
  call void @llvm.lifetime.end.p0i8(i64 4, i8* nonnull %4) #7
  call void @llvm.lifetime.end.p0i8(i64 4, i8* nonnull %3) #7
  ret i32 0
}

declare nonnull align 8 dereferenceable(16) %"class.std::basic_istream"* @_ZNSirsERi(%"class.std::basic_istream"* nonnull align 8 dereferenceable(16), i32* nonnull align 4 dereferenceable(4)) local_unnamed_addr #0

declare nonnull align 8 dereferenceable(8) %"class.std::basic_ostream"* @_ZNSolsEi(%"class.std::basic_ostream"* nonnull align 8 dereferenceable(8), i32) local_unnamed_addr #0

; Function Attrs: sspstrong uwtable
define internal void @_GLOBAL__sub_I_1208.cpp() #6 section ".text.startup" {
  tail call void @_ZNSt8ios_base4InitC1Ev(%"class.std::ios_base::Init"* nonnull align 1 dereferenceable(1) @_ZStL8__ioinit)
  %1 = tail call i32 @__cxa_atexit(void (i8*)* bitcast (void (%"class.std::ios_base::Init"*)* @_ZNSt8ios_base4InitD1Ev to void (i8*)*), i8* getelementptr inbounds (%"class.std::ios_base::Init", %"class.std::ios_base::Init"* @_ZStL8__ioinit, i64 0, i32 0), i8* nonnull @__dso_handle) #7
  ret void
}


!llvm.module.flags = !{!0, !1, !2, !3}
!llvm.ident = !{!4}

!0 = !{i32 1, !"wchar_size", i32 4}
!1 = !{i32 7, !"PIC Level", i32 2}
!2 = !{i32 7, !"PIE Level", i32 2}
!3 = !{i32 7, !"uwtable", i32 1}
!4 = !{!"clang version 13.0.0"}
!5 = !{!6, !6, i64 0}
!6 = !{!"int", !7, i64 0}
!7 = !{!"omnipotent char", !8, i64 0}
!8 = !{!"Simple C++ TBAA"}
!9 = distinct !{!9, !10}
!10 = !{!"llvm.loop.mustprogress"}
